target datalayout = "e-m:e-p270:32:32-p271:32:32-p272:64:64-i64:64-i128:128-f80:128-n8:16:32:64-S128"
target triple = "x86_64-unknown-linux-gnu"

%struct.TPCI200State = type { %struct.PCIDevice, %struct.IPackBus, %struct.MemoryRegion, %struct.MemoryRegion, %struct.MemoryRegion, %struct.MemoryRegion, %struct.MemoryRegion, %struct.MemoryRegion, [3 x i8], [4 x i8], i16, i8 }
%struct.PCIDevice = type { %struct.DeviceState, i8, i8, ptr, ptr, ptr, ptr, ptr, i32, %struct.PCIReqIDCache, [64 x i8], [7 x %struct.PCIIORegion], %struct.AddressSpace, %struct.MemoryRegion, %struct.MemoryRegion, ptr, ptr, [3 x ptr], i8, i8, i32, i8, i32, ptr, ptr, ptr, ptr, ptr, ptr, %struct.MemoryRegion, %struct.MemoryRegion, %struct.MemoryRegion, ptr, i8, i32, i8, %struct.PCIExpressDevice, ptr, ptr, i32, i8, %struct.MemoryRegion, i32, ptr, ptr, ptr, ptr, ptr, i32 }
%struct.DeviceState = type { %struct.Object, ptr, ptr, i8, i8, i64, ptr, i32, i8, ptr, %struct.NamedGPIOListHead, %struct.NamedClockListHead, %struct.BusStateHead, i32, i32, i32, %struct.ResettableState, ptr, %struct.MemReentrancyGuard }
%struct.Object = type { ptr, ptr, ptr, i32, ptr }
%struct.NamedGPIOListHead = type { ptr }
%struct.NamedClockListHead = type { ptr }
%struct.BusStateHead = type { ptr }
%struct.ResettableState = type { i32, i8, i8 }
%struct.MemReentrancyGuard = type { i8 }
%struct.PCIReqIDCache = type { ptr, i32 }
%struct.PCIIORegion = type { i64, i64, i8, ptr, ptr }
%struct.AddressSpace = type { %struct.rcu_head, ptr, ptr, ptr, i32, i32, ptr, %union.anon, %union.anon.0 }
%struct.rcu_head = type { ptr, ptr }
%union.anon = type { %struct.QTailQLink }
%struct.QTailQLink = type { ptr, ptr }
%union.anon.0 = type { %struct.QTailQLink }
%struct.PCIExpressDevice = type { i8, i8, i8, i16, %struct.PCIEAERLog, i16, i16, i16, %struct.PCIESriovPF, %struct.PCIESriovVF }
%struct.PCIEAERLog = type { i16, i16, ptr }
%struct.PCIESriovPF = type { i16, [7 x i8], ptr, ptr }
%struct.PCIESriovVF = type { ptr, i16 }
%struct.IPackBus = type { %struct.BusState, i8, i8, ptr }
%struct.BusState = type { %struct.Object, ptr, ptr, ptr, i32, i8, i8, i32, %union.BusChildHead, %struct.BusStateEntry, %struct.ResettableState }
%union.BusChildHead = type { %struct.QTailQLink }
%struct.BusStateEntry = type { ptr, ptr }
%struct.MemoryRegion = type { %struct.Object, i8, i8, i8, i8, i8, i8, i8, i8, i8, i8, ptr, ptr, ptr, ptr, ptr, ptr, i32, i128, i64, ptr, i64, i8, i8, i8, i8, i8, ptr, i64, i32, %union.anon.1, %union.anon.2, %union.anon.3, ptr, i32, ptr, ptr, i8 }
%union.anon.1 = type { %struct.QTailQLink }
%union.anon.2 = type { %struct.QTailQLink }
%union.anon.3 = type { %struct.QTailQLink }
%struct.IPackDevice = type { %struct.DeviceState, i32, ptr }

@.str = private unnamed_addr constant [8 x i8] c"tpci200\00", align 1
@.str.1 = private unnamed_addr constant [11 x i8] c"pci-device\00", align 1
@.str.4 = private unnamed_addr constant [7 x i8] c"device\00", align 1
@.str.5 = private unnamed_addr constant [101 x i8] c"/home/dtcxzyw/WorkSpace/Projects/compilers/llvm-opt-benchmark/bench/qemu/qemu/include/hw/qdev-core.h\00", align 1
@.str.6 = private unnamed_addr constant [106 x i8] c"/home/dtcxzyw/WorkSpace/Projects/compilers/llvm-opt-benchmark/bench/qemu/qemu/include/hw/pci/pci_device.h\00", align 1
@.str.13 = private unnamed_addr constant [27 x i8] c"../qemu/hw/ipack/tpci200.c\00", align 1
@__func__.TPCI200 = private unnamed_addr constant [8 x i8] c"TPCI200\00", align 1
@.str.15 = private unnamed_addr constant [103 x i8] c"/home/dtcxzyw/WorkSpace/Projects/compilers/llvm-opt-benchmark/bench/qemu/qemu/include/hw/ipack/ipack.h\00", align 1
@__func__.DEVICE = private unnamed_addr constant [7 x i8] c"DEVICE\00", align 1
@.str.16 = private unnamed_addr constant [38 x i8] c"ip->slot >= 0 && ip->slot < N_MODULES\00", align 1
@__PRETTY_FUNCTION__.tpci200_set_irq = private unnamed_addr constant [39 x i8] c"void tpci200_set_irq(void *, int, int)\00", align 1
@.str.17 = private unnamed_addr constant [13 x i8] c"IndustryPack\00", align 1
@__func__.IPACK_BUS = private unnamed_addr constant [10 x i8] c"IPACK_BUS\00", align 1
@__func__.PCI_DEVICE = private unnamed_addr constant [11 x i8] c"PCI_DEVICE\00", align 1
@.str.18 = private unnamed_addr constant [4 x i8] c"bus\00", align 1
@__func__.BUS = private unnamed_addr constant [4 x i8] c"BUS\00", align 1

; Function Attrs: nounwind sspstrong uwtable
define internal void @pci_irq_deassert(ptr noundef %pci_dev) #0 {
entry:
  %pci_dev.addr = alloca ptr, align 8
  store ptr %pci_dev, ptr %pci_dev.addr, align 8
  %0 = load ptr, ptr %pci_dev.addr, align 8
  call void @pci_set_irq(ptr noundef %0, i32 noundef 0)
  ret void
}

; Function Attrs: nounwind sspstrong uwtable
define internal void @pci_irq_assert(ptr noundef %pci_dev) #0 {
entry:
  %pci_dev.addr = alloca ptr, align 8
  store ptr %pci_dev, ptr %pci_dev.addr, align 8
  %0 = load ptr, ptr %pci_dev.addr, align 8
  call void @pci_set_irq(ptr noundef %0, i32 noundef 1)
  ret void
}

; Function Attrs: nounwind sspstrong uwtable
define internal ptr @TPCI200(ptr noundef %obj) #0 {
entry:
  %obj.addr = alloca ptr, align 8
  store ptr %obj, ptr %obj.addr, align 8
  %0 = load ptr, ptr %obj.addr, align 8
  %call = call ptr @object_dynamic_cast_assert(ptr noundef %0, ptr noundef @.str, ptr noundef @.str.13, i32 noundef 75, ptr noundef @__func__.TPCI200)
  ret ptr %call
}

; Function Attrs: nounwind sspstrong uwtable
define internal ptr @PCI_DEVICE(ptr noundef %obj) #0 {
entry:
  %obj.addr = alloca ptr, align 8
  store ptr %obj, ptr %obj.addr, align 8
  %0 = load ptr, ptr %obj.addr, align 8
  %call = call ptr @object_dynamic_cast_assert(ptr noundef %0, ptr noundef @.str.1, ptr noundef @.str.6, i32 noundef 10, ptr noundef @__func__.PCI_DEVICE)
  ret ptr %call
}

; Function Attrs: nounwind sspstrong uwtable
define internal ptr @BUS(ptr noundef %obj) #0 {
entry:
  %obj.addr = alloca ptr, align 8
  store ptr %obj, ptr %obj.addr, align 8
  %0 = load ptr, ptr %obj.addr, align 8
  %call = call ptr @object_dynamic_cast_assert(ptr noundef %0, ptr noundef @.str.18, ptr noundef @.str.5, i32 noundef 316, ptr noundef @__func__.BUS)
  ret ptr %call
}

; Function Attrs: nounwind sspstrong uwtable
define internal ptr @IPACK_BUS(ptr noundef %obj) #0 {
entry:
  %obj.addr = alloca ptr, align 8
  store ptr %obj, ptr %obj.addr, align 8
  %0 = load ptr, ptr %obj.addr, align 8
  %call = call ptr @object_dynamic_cast_assert(ptr noundef %0, ptr noundef @.str.17, ptr noundef @.str.15, i32 noundef 19, ptr noundef @__func__.IPACK_BUS)
  ret ptr %call
}

; Function Attrs: nounwind sspstrong uwtable
define internal ptr @DEVICE(ptr noundef %obj) #0 {
entry:
  %obj.addr = alloca ptr, align 8
  store ptr %obj, ptr %obj.addr, align 8
  %0 = load ptr, ptr %obj.addr, align 8
  %call = call ptr @object_dynamic_cast_assert(ptr noundef %0, ptr noundef @.str.4, ptr noundef @.str.5, i32 noundef 77, ptr noundef @__func__.DEVICE)
  ret ptr %call
}

; Function Attrs: nounwind sspstrong uwtable
define internal void @tpci200_set_irq(ptr noundef %opaque, i32 noundef %intno, i32 noundef %level) #0 {
entry:
  %opaque.addr = alloca ptr, align 8
  %intno.addr = alloca i32, align 4
  %level.addr = alloca i32, align 4
  %ip = alloca ptr, align 8
  %bus = alloca ptr, align 8
  %pcidev = alloca ptr, align 8
  %dev = alloca ptr, align 8
  %ip_n = alloca i32, align 4
  %prev_status = alloca i16, align 2
  %i = alloca i32, align 4
  %j = alloca i32, align 4
  %level_status = alloca i16, align 2
  store ptr %opaque, ptr %opaque.addr, align 8
  store i32 %intno, ptr %intno.addr, align 4
  store i32 %level, ptr %level.addr, align 4
  %0 = load ptr, ptr %opaque.addr, align 8
  store ptr %0, ptr %ip, align 8
  %1 = load ptr, ptr %ip, align 8
  %call = call ptr @DEVICE(ptr noundef %1)
  %call1 = call ptr @qdev_get_parent_bus(ptr noundef %call)
  %call2 = call ptr @IPACK_BUS(ptr noundef %call1)
  store ptr %call2, ptr %bus, align 8
  %2 = load ptr, ptr %bus, align 8
  %call3 = call ptr @BUS(ptr noundef %2)
  %parent = getelementptr inbounds %struct.BusState, ptr %call3, i32 0, i32 1
  %3 = load ptr, ptr %parent, align 8
  %call4 = call ptr @PCI_DEVICE(ptr noundef %3)
  store ptr %call4, ptr %pcidev, align 8
  %4 = load ptr, ptr %pcidev, align 8
  %call5 = call ptr @TPCI200(ptr noundef %4)
  store ptr %call5, ptr %dev, align 8
  %5 = load ptr, ptr %ip, align 8
  %slot = getelementptr inbounds %struct.IPackDevice, ptr %5, i32 0, i32 1
  %6 = load i32, ptr %slot, align 8
  store i32 %6, ptr %ip_n, align 4
  %7 = load ptr, ptr %dev, align 8
  %status = getelementptr inbounds %struct.TPCI200State, ptr %7, i32 0, i32 10
  %8 = load i16, ptr %status, align 8
  store i16 %8, ptr %prev_status, align 2
  %9 = load ptr, ptr %ip, align 8
  %slot6 = getelementptr inbounds %struct.IPackDevice, ptr %9, i32 0, i32 1
  %10 = load i32, ptr %slot6, align 8
  %cmp = icmp sge i32 %10, 0
  br i1 %cmp, label %land.lhs.true, label %if.else

land.lhs.true:                                    ; preds = %entry
  %11 = load ptr, ptr %ip, align 8
  %slot7 = getelementptr inbounds %struct.IPackDevice, ptr %11, i32 0, i32 1
  %12 = load i32, ptr %slot7, align 8
  %cmp8 = icmp slt i32 %12, 4
  br i1 %cmp8, label %if.then, label %if.else

if.then:                                          ; preds = %land.lhs.true
  br label %if.end

if.else:                                          ; preds = %land.lhs.true, %entry
  call void @__assert_fail(ptr noundef @.str.16, ptr noundef @.str.13, i32 noundef 116, ptr noundef @__PRETTY_FUNCTION__.tpci200_set_irq) #5
  unreachable

if.end:                                           ; preds = %if.then
  %13 = load ptr, ptr %dev, align 8
  %ctrl = getelementptr inbounds %struct.TPCI200State, ptr %13, i32 0, i32 9
  %14 = load i32, ptr %ip_n, align 4
  %idxprom = zext i32 %14 to i64
  %arrayidx = getelementptr [4 x i8], ptr %ctrl, i64 0, i64 %idxprom
  %15 = load i8, ptr %arrayidx, align 1
  %conv = zext i8 %15 to i64
  %16 = load i32, ptr %intno.addr, align 4
  %add = add i32 6, %16
  %sh_prom = zext i32 %add to i64
  %shl = shl i64 1, %sh_prom
  %and = and i64 %conv, %shl
  %tobool = icmp ne i64 %and, 0
  br i1 %tobool, label %if.end10, label %if.then9

if.then9:                                         ; preds = %if.end
  br label %if.end103

if.end10:                                         ; preds = %if.end
  %17 = load i32, ptr %level.addr, align 4
  %tobool11 = icmp ne i32 %17, 0
  br i1 %tobool11, label %if.then12, label %if.else19

if.then12:                                        ; preds = %if.end10
  %18 = load i32, ptr %ip_n, align 4
  %mul = mul i32 %18, 2
  %19 = load i32, ptr %intno.addr, align 4
  %add13 = add i32 %mul, %19
  %sh_prom14 = zext i32 %add13 to i64
  %shl15 = shl i64 1, %sh_prom14
  %20 = load ptr, ptr %dev, align 8
  %status16 = getelementptr inbounds %struct.TPCI200State, ptr %20, i32 0, i32 10
  %21 = load i16, ptr %status16, align 8
  %conv17 = zext i16 %21 to i64
  %or = or i64 %conv17, %shl15
  %conv18 = trunc i64 %or to i16
  store i16 %conv18, ptr %status16, align 8
  br label %if.end28

if.else19:                                        ; preds = %if.end10
  %22 = load i32, ptr %ip_n, align 4
  %mul20 = mul i32 %22, 2
  %23 = load i32, ptr %intno.addr, align 4
  %add21 = add i32 %mul20, %23
  %sh_prom22 = zext i32 %add21 to i64
  %shl23 = shl i64 1, %sh_prom22
  %not = xor i64 %shl23, -1
  %24 = load ptr, ptr %dev, align 8
  %status24 = getelementptr inbounds %struct.TPCI200State, ptr %24, i32 0, i32 10
  %25 = load i16, ptr %status24, align 8
  %conv25 = zext i16 %25 to i64
  %and26 = and i64 %conv25, %not
  %conv27 = trunc i64 %and26 to i16
  store i16 %conv27, ptr %status24, align 8
  br label %if.end28

if.end28:                                         ; preds = %if.else19, %if.then12
  %26 = load ptr, ptr %dev, align 8
  %status29 = getelementptr inbounds %struct.TPCI200State, ptr %26, i32 0, i32 10
  %27 = load i16, ptr %status29, align 8
  %conv30 = zext i16 %27 to i32
  %28 = load i16, ptr %prev_status, align 2
  %conv31 = zext i16 %28 to i32
  %cmp32 = icmp eq i32 %conv30, %conv31
  br i1 %cmp32, label %if.then34, label %if.end35

if.then34:                                        ; preds = %if.end28
  br label %if.end103

if.end35:                                         ; preds = %if.end28
  br label %do.body

do.body:                                          ; preds = %if.end35
  br label %do.end

do.end:                                           ; preds = %do.body
  %29 = load ptr, ptr %dev, align 8
  %ctrl36 = getelementptr inbounds %struct.TPCI200State, ptr %29, i32 0, i32 9
  %30 = load i32, ptr %ip_n, align 4
  %idxprom37 = zext i32 %30 to i64
  %arrayidx38 = getelementptr [4 x i8], ptr %ctrl36, i64 0, i64 %idxprom37
  %31 = load i8, ptr %arrayidx38, align 1
  %conv39 = zext i8 %31 to i64
  %32 = load i32, ptr %intno.addr, align 4
  %add40 = add i32 4, %32
  %sh_prom41 = zext i32 %add40 to i64
  %shl42 = shl i64 1, %sh_prom41
  %and43 = and i64 %conv39, %shl42
  %tobool44 = icmp ne i64 %and43, 0
  br i1 %tobool44, label %if.then45, label %if.else54

if.then45:                                        ; preds = %do.end
  %33 = load i32, ptr %level.addr, align 4
  %tobool46 = icmp ne i32 %33, 0
  br i1 %tobool46, label %if.then47, label %if.end53

if.then47:                                        ; preds = %if.then45
  %34 = load ptr, ptr %dev, align 8
  %dev48 = getelementptr inbounds %struct.TPCI200State, ptr %34, i32 0, i32 0
  %35 = load ptr, ptr %dev, align 8
  %int_set = getelementptr inbounds %struct.TPCI200State, ptr %35, i32 0, i32 11
  %36 = load i8, ptr %int_set, align 2
  %tobool49 = icmp ne i8 %36, 0
  %lnot = xor i1 %tobool49, true
  %lnot.ext = zext i1 %lnot to i32
  call void @pci_set_irq(ptr noundef %dev48, i32 noundef %lnot.ext)
  %37 = load ptr, ptr %dev, align 8
  %dev50 = getelementptr inbounds %struct.TPCI200State, ptr %37, i32 0, i32 0
  %38 = load ptr, ptr %dev, align 8
  %int_set51 = getelementptr inbounds %struct.TPCI200State, ptr %38, i32 0, i32 11
  %39 = load i8, ptr %int_set51, align 2
  %conv52 = zext i8 %39 to i32
  call void @pci_set_irq(ptr noundef %dev50, i32 noundef %conv52)
  br label %if.end53

if.end53:                                         ; preds = %if.then47, %if.then45
  br label %if.end103

if.else54:                                        ; preds = %do.end
  %40 = load ptr, ptr %dev, align 8
  %status55 = getelementptr inbounds %struct.TPCI200State, ptr %40, i32 0, i32 10
  %41 = load i16, ptr %status55, align 8
  store i16 %41, ptr %level_status, align 2
  store i32 0, ptr %i, align 4
  br label %for.cond

for.cond:                                         ; preds = %for.inc81, %if.else54
  %42 = load i32, ptr %i, align 4
  %cmp56 = icmp ult i32 %42, 4
  br i1 %cmp56, label %for.body, label %for.end83

for.body:                                         ; preds = %for.cond
  store i32 0, ptr %j, align 4
  br label %for.cond58

for.cond58:                                       ; preds = %for.inc, %for.body
  %43 = load i32, ptr %j, align 4
  %cmp59 = icmp ult i32 %43, 2
  br i1 %cmp59, label %for.body61, label %for.end

for.body61:                                       ; preds = %for.cond58
  %44 = load ptr, ptr %dev, align 8
  %ctrl62 = getelementptr inbounds %struct.TPCI200State, ptr %44, i32 0, i32 9
  %45 = load i32, ptr %i, align 4
  %idxprom63 = zext i32 %45 to i64
  %arrayidx64 = getelementptr [4 x i8], ptr %ctrl62, i64 0, i64 %idxprom63
  %46 = load i8, ptr %arrayidx64, align 1
  %conv65 = zext i8 %46 to i64
  %47 = load i32, ptr %j, align 4
  %add66 = add i32 4, %47
  %sh_prom67 = zext i32 %add66 to i64
  %shl68 = shl i64 1, %sh_prom67
  %and69 = and i64 %conv65, %shl68
  %tobool70 = icmp ne i64 %and69, 0
  br i1 %tobool70, label %if.then71, label %if.end80

if.then71:                                        ; preds = %for.body61
  %48 = load i32, ptr %i, align 4
  %mul72 = mul i32 %48, 2
  %49 = load i32, ptr %j, align 4
  %add73 = add i32 %mul72, %49
  %sh_prom74 = zext i32 %add73 to i64
  %shl75 = shl i64 1, %sh_prom74
  %not76 = xor i64 %shl75, -1
  %50 = load i16, ptr %level_status, align 2
  %conv77 = zext i16 %50 to i64
  %and78 = and i64 %conv77, %not76
  %conv79 = trunc i64 %and78 to i16
  store i16 %conv79, ptr %level_status, align 2
  br label %if.end80

if.end80:                                         ; preds = %if.then71, %for.body61
  br label %for.inc

for.inc:                                          ; preds = %if.end80
  %51 = load i32, ptr %j, align 4
  %inc = add i32 %51, 1
  store i32 %inc, ptr %j, align 4
  br label %for.cond58, !llvm.loop !5

for.end:                                          ; preds = %for.cond58
  br label %for.inc81

for.inc81:                                        ; preds = %for.end
  %52 = load i32, ptr %i, align 4
  %inc82 = add i32 %52, 1
  store i32 %inc82, ptr %i, align 4
  br label %for.cond, !llvm.loop !7

for.end83:                                        ; preds = %for.cond
  %53 = load i16, ptr %level_status, align 2
  %conv84 = zext i16 %53 to i32
  %tobool85 = icmp ne i32 %conv84, 0
  br i1 %tobool85, label %land.lhs.true86, label %if.else92

land.lhs.true86:                                  ; preds = %for.end83
  %54 = load ptr, ptr %dev, align 8
  %int_set87 = getelementptr inbounds %struct.TPCI200State, ptr %54, i32 0, i32 11
  %55 = load i8, ptr %int_set87, align 2
  %tobool88 = icmp ne i8 %55, 0
  br i1 %tobool88, label %if.else92, label %if.then89

if.then89:                                        ; preds = %land.lhs.true86
  %56 = load ptr, ptr %dev, align 8
  %dev90 = getelementptr inbounds %struct.TPCI200State, ptr %56, i32 0, i32 0
  call void @pci_irq_assert(ptr noundef %dev90)
  %57 = load ptr, ptr %dev, align 8
  %int_set91 = getelementptr inbounds %struct.TPCI200State, ptr %57, i32 0, i32 11
  store i8 1, ptr %int_set91, align 2
  br label %if.end102

if.else92:                                        ; preds = %land.lhs.true86, %for.end83
  %58 = load i16, ptr %level_status, align 2
  %tobool93 = icmp ne i16 %58, 0
  br i1 %tobool93, label %if.end101, label %land.lhs.true94

land.lhs.true94:                                  ; preds = %if.else92
  %59 = load ptr, ptr %dev, align 8
  %int_set95 = getelementptr inbounds %struct.TPCI200State, ptr %59, i32 0, i32 11
  %60 = load i8, ptr %int_set95, align 2
  %conv96 = zext i8 %60 to i32
  %tobool97 = icmp ne i32 %conv96, 0
  br i1 %tobool97, label %if.then98, label %if.end101

if.then98:                                        ; preds = %land.lhs.true94
  %61 = load ptr, ptr %dev, align 8
  %dev99 = getelementptr inbounds %struct.TPCI200State, ptr %61, i32 0, i32 0
  call void @pci_irq_deassert(ptr noundef %dev99)
  %62 = load ptr, ptr %dev, align 8
  %int_set100 = getelementptr inbounds %struct.TPCI200State, ptr %62, i32 0, i32 11
  store i8 0, ptr %int_set100, align 2
  br label %if.end101

if.end101:                                        ; preds = %if.then98, %land.lhs.true94, %if.else92
  br label %if.end102

if.end102:                                        ; preds = %if.end101, %if.then89
  br label %if.end103

if.end103:                                        ; preds = %if.end102, %if.end53, %if.then34, %if.then9
  ret void
}