; Function Attrs: nounwind sspstrong uwtable
define internal void @tpci200_set_irq(ptr noundef %opaque, i32 noundef %intno, i32 noundef %level) #0 {
entry:
  %call.i = tail call ptr @object_dynamic_cast_assert(ptr noundef %opaque, ptr noundef nonnull @.str.4, ptr noundef nonnull @.str.5, i32 noundef 77, ptr noundef nonnull @__func__.DEVICE) #6
  %call1 = tail call ptr @qdev_get_parent_bus(ptr noundef %call.i) #6
  %call.i36 = tail call ptr @object_dynamic_cast_assert(ptr noundef %call1, ptr noundef nonnull @.str.17, ptr noundef nonnull @.str.15, i32 noundef 19, ptr noundef nonnull @__func__.IPACK_BUS) #6
  %call.i37 = tail call ptr @object_dynamic_cast_assert(ptr noundef %call.i36, ptr noundef nonnull @.str.18, ptr noundef nonnull @.str.5, i32 noundef 316, ptr noundef nonnull @__func__.BUS) #6
  %parent = getelementptr inbounds nuw i8, ptr %call.i37, i64 40
  %0 = load ptr, ptr %parent, align 8
  %call.i38 = tail call ptr @object_dynamic_cast_assert(ptr noundef %0, ptr noundef nonnull @.str.1, ptr noundef nonnull @.str.6, i32 noundef 10, ptr noundef nonnull @__func__.PCI_DEVICE) #6
  %call.i39 = tail call ptr @object_dynamic_cast_assert(ptr noundef %call.i38, ptr noundef nonnull @.str, ptr noundef nonnull @.str.13, i32 noundef 75, ptr noundef nonnull @__func__.TPCI200) #6
  %slot = getelementptr inbounds nuw i8, ptr %opaque, i64 160
  %1 = load i32, ptr %slot, align 8
  %status = getelementptr inbounds nuw i8, ptr %call.i39, i64 4392
  %2 = load i16, ptr %status, align 8
  %or.cond = icmp ult i32 %1, 4
  br i1 %or.cond, label %if.end, label %if.else

if.else:                                          ; preds = %entry
  tail call void @__assert_fail(ptr noundef nonnull @.str.16, ptr noundef nonnull @.str.13, i32 noundef 116, ptr noundef nonnull @__PRETTY_FUNCTION__.tpci200_set_irq) #7
  unreachable

if.end:                                           ; preds = %entry
  %ctrl = getelementptr inbounds nuw i8, ptr %call.i39, i64 4387
  %idxprom = zext nneg i32 %1 to i64
  %arrayidx = getelementptr [4 x i8], ptr %ctrl, i64 0, i64 %idxprom
  %3 = load i8, ptr %arrayidx, align 1
  %conv = zext i8 %3 to i64
  %add = add i32 %intno, 6
  %sh_prom = zext nneg i32 %add to i64
  %shl = shl nuw i64 1, %sh_prom
  %and = and i64 %shl, %conv
  %tobool.not = icmp eq i64 %and, 0
  br i1 %tobool.not, label %if.end103, label %if.end10

if.end10:                                         ; preds = %if.end
  %tobool11.not = icmp eq i32 %level, 0
  %mul20 = shl nuw nsw i32 %1, 1
  %add21 = add i32 %mul20, %intno
  %sh_prom22 = zext nneg i32 %add21 to i64
  %shl23 = shl nuw i64 1, %sh_prom22
  %4 = trunc i64 %shl23 to i16
  %5 = xor i16 %4, -1
  %conv27 = and i16 %2, %5
  %conv18 = or i16 %2, %4
  %storemerge = select i1 %tobool11.not, i16 %conv27, i16 %conv18
  store i16 %storemerge, ptr %status, align 8
  %cmp32 = icmp eq i16 %storemerge, %2
  br i1 %cmp32, label %if.end103, label %do.end

do.end:                                           ; preds = %if.end10
  %6 = load i8, ptr %arrayidx, align 1
  %conv39 = zext i8 %6 to i64
  %add40 = add i32 %intno, 4
  %sh_prom41 = zext nneg i32 %add40 to i64
  %shl42 = shl nuw i64 1, %sh_prom41
  %and43 = and i64 %shl42, %conv39
  %tobool44.not = icmp eq i64 %and43, 0
  br i1 %tobool44.not, label %for.cond58.preheader, label %if.then45

if.then45:                                        ; preds = %do.end
  br i1 %tobool11.not, label %if.end103, label %if.then47

if.then47:                                        ; preds = %if.then45
  %int_set = getelementptr inbounds nuw i8, ptr %call.i39, i64 4394
  %7 = load i8, ptr %int_set, align 2
  %tobool49.not = icmp eq i8 %7, 0
  %lnot.ext = zext i1 %tobool49.not to i32
  tail call void @pci_set_irq(ptr noundef nonnull %call.i39, i32 noundef %lnot.ext) #6
  %8 = load i8, ptr %int_set, align 2
  %conv52 = zext i8 %8 to i32
  tail call void @pci_set_irq(ptr noundef nonnull %call.i39, i32 noundef %conv52) #6
  br label %if.end103

for.cond58.preheader:                             ; preds = %do.end, %for.inc81
  %indvars.iv46 = phi i64 [ %indvars.iv.next47, %for.inc81 ], [ 0, %do.end ]
  %level_status.043 = phi i16 [ %level_status.2, %for.inc81 ], [ %storemerge, %do.end ]
  %arrayidx64 = getelementptr [4 x i8], ptr %ctrl, i64 0, i64 %indvars.iv46
  %9 = load i8, ptr %arrayidx64, align 1
  %conv65 = zext i8 %9 to i64
  %10 = shl nuw nsw i64 %indvars.iv46, 1
  br label %for.body61

for.body61:                                       ; preds = %for.cond58.preheader, %for.body61
  %cmp59 = phi i1 [ true, %for.cond58.preheader ], [ false, %for.body61 ]
  %indvars.iv = phi i64 [ 0, %for.cond58.preheader ], [ 1, %for.body61 ]
  %level_status.141 = phi i16 [ %level_status.043, %for.cond58.preheader ], [ %level_status.2, %for.body61 ]
  %shl68 = shl nuw nsw i64 16, %indvars.iv
  %and69 = and i64 %shl68, %conv65
  %tobool70.not = icmp eq i64 %and69, 0
  %11 = or disjoint i64 %indvars.iv, %10
  %shl75 = shl nuw nsw i64 1, %11
  %12 = trunc nuw i64 %shl75 to i16
  %13 = xor i16 %12, -1
  %conv79 = select i1 %tobool70.not, i16 -1, i16 %13
  %level_status.2 = and i16 %level_status.141, %conv79
  br i1 %cmp59, label %for.body61, label %for.inc81, !llvm.loop !5

for.inc81:                                        ; preds = %for.body61
  %indvars.iv.next47 = add nuw nsw i64 %indvars.iv46, 1
  %exitcond.not = icmp eq i64 %indvars.iv.next47, 4
  br i1 %exitcond.not, label %for.end83, label %for.cond58.preheader, !llvm.loop !7

for.end83:                                        ; preds = %for.inc81
  %cond = icmp eq i16 %level_status.2, 0
  %int_set95 = getelementptr inbounds nuw i8, ptr %call.i39, i64 4394
  %14 = load i8, ptr %int_set95, align 2
  %tobool97.not = icmp eq i8 %14, 0
  br i1 %cond, label %land.lhs.true94, label %land.lhs.true86

land.lhs.true86:                                  ; preds = %for.end83
  br i1 %tobool97.not, label %if.then89, label %if.end103

if.then89:                                        ; preds = %land.lhs.true86
  tail call void @pci_set_irq(ptr noundef nonnull %call.i39, i32 noundef 1) #6
  store i8 1, ptr %int_set95, align 2
  br label %if.end103

land.lhs.true94:                                  ; preds = %for.end83
  br i1 %tobool97.not, label %if.end103, label %if.then98

if.then98:                                        ; preds = %land.lhs.true94
  tail call void @pci_set_irq(ptr noundef nonnull %call.i39, i32 noundef 0) #6
  store i8 0, ptr %int_set95, align 2
  br label %if.end103

if.end103:                                        ; preds = %land.lhs.true86, %if.then89, %if.then98, %land.lhs.true94, %if.then45, %if.then47, %if.end10, %if.end
  ret void
}